target datalayout = "e-m:e-p270:32:32-p271:32:32-p272:64:64-i64:64-i128:128-f80:128-n8:16:32:64-S128"
target triple = "x86_64-pc-linux-gnu"

%struct.QMapDataBase = type { %"class.QtPrivate::RefCount", i32, %struct.QMapNodeBase, ptr }
%"class.QtPrivate::RefCount" = type { %class.QBasicAtomicInteger }
%class.QBasicAtomicInteger = type { %"struct.std::atomic.16" }
%"struct.std::atomic.16" = type { %"struct.std::__atomic_base.17" }
%"struct.std::__atomic_base.17" = type { i32 }
%struct.QMapNodeBase = type { i64, ptr, ptr }
%class.MeshDocumentStateData = type { %class.QReadWriteLock, %class.QMap }
%class.QReadWriteLock = type { %class.QAtomicPointer }
%class.QAtomicPointer = type { %class.QBasicAtomicPointer }
%class.QBasicAtomicPointer = type { %"struct.std::atomic" }
%"struct.std::atomic" = type { %"struct.std::__atomic_base" }
%"struct.std::__atomic_base" = type { ptr }
%class.QMap = type { ptr }
%class.QWriteLocker = type { i64 }
%struct.QMapNode = type { %struct.QMapNodeBase, i32, %struct.MeshModelStateData }
%struct.MeshModelStateData = type { i32, i64, i64, i64 }
%"class.QMap<int, MeshModelStateData>::iterator" = type { ptr }

; Function Attrs: mustprogress nounwind uwtable
define linkonce_odr noundef i32 @_ZStanSt12memory_orderSt23__memory_order_modifier(i32 noundef %0, i32 noundef %1) #4 comdat {
  %3 = alloca i32, align 4
  %4 = alloca i32, align 4
  store i32 %0, ptr %3, align 4
  store i32 %1, ptr %4, align 4
  %5 = load i32, ptr %3, align 4
  %6 = load i32, ptr %4, align 4
  %7 = and i32 %5, %6
  ret i32 %7
}

; Function Attrs: mustprogress nounwind uwtable
define linkonce_odr noundef i32 @_ZN10QAtomicOpsIiE11loadRelaxedIiEET_RKSt6atomicIS2_E(ptr noundef nonnull align 4 dereferenceable(4) %0) #4 comdat align 2 personality ptr @__gxx_personality_v0 {
  %2 = alloca ptr, align 8
  %3 = alloca i32, align 4
  %4 = alloca i32, align 4
  %5 = alloca i32, align 4
  %6 = alloca ptr, align 8
  store ptr %0, ptr %6, align 8
  %7 = load ptr, ptr %6, align 8
  store ptr %7, ptr %2, align 8
  store i32 0, ptr %3, align 4
  %8 = load ptr, ptr %2, align 8
  %9 = load i32, ptr %3, align 4
  %10 = invoke noundef i32 @_ZStanSt12memory_orderSt23__memory_order_modifier(i32 noundef %9, i32 noundef 65535)
          to label %11 unwind label %19

11:                                               ; preds = %1
  store i32 %10, ptr %4, align 4
  %12 = load i32, ptr %3, align 4
  switch i32 %12, label %13 [
    i32 1, label %15
    i32 2, label %15
    i32 5, label %17
  ]

13:                                               ; preds = %11
  %14 = load atomic i32, ptr %8 monotonic, align 4
  store i32 %14, ptr %5, align 4
  br label %22

15:                                               ; preds = %11, %11
  %16 = load atomic i32, ptr %8 acquire, align 4
  store i32 %16, ptr %5, align 4
  br label %22

17:                                               ; preds = %11
  %18 = load atomic i32, ptr %8 seq_cst, align 4
  store i32 %18, ptr %5, align 4
  br label %22

19:                                               ; preds = %1
  %20 = landingpad { ptr, i32 }
          catch ptr null
  %21 = extractvalue { ptr, i32 } %20, 0
  call void @__clang_call_terminate(ptr %21) #13
  unreachable

22:                                               ; preds = %17, %15, %13
  %23 = load i32, ptr %5, align 4
  ret i32 %23
}

; Function Attrs: mustprogress nounwind uwtable
define linkonce_odr noundef i32 @_ZNK19QBasicAtomicIntegerIiE11loadRelaxedEv(ptr noundef nonnull align 4 dereferenceable(4) %0) #4 comdat align 2 {
  %2 = alloca ptr, align 8
  store ptr %0, ptr %2, align 8
  %3 = load ptr, ptr %2, align 8
  %4 = getelementptr inbounds %class.QBasicAtomicInteger, ptr %3, i32 0, i32 0
  %5 = call noundef i32 @_ZN10QAtomicOpsIiE11loadRelaxedIiEET_RKSt6atomicIS2_E(ptr noundef nonnull align 4 dereferenceable(4) %4) #3
  ret i32 %5
}

; Function Attrs: mustprogress nounwind uwtable
define linkonce_odr noundef zeroext i1 @_ZNK9QtPrivate8RefCount8isSharedEv(ptr noundef nonnull align 4 dereferenceable(4) %0) #4 comdat align 2 {
  %2 = alloca ptr, align 8
  %3 = alloca i32, align 4
  store ptr %0, ptr %2, align 8
  %4 = load ptr, ptr %2, align 8
  %5 = getelementptr inbounds %"class.QtPrivate::RefCount", ptr %4, i32 0, i32 0
  %6 = call noundef i32 @_ZNK19QBasicAtomicIntegerIiE11loadRelaxedEv(ptr noundef nonnull align 4 dereferenceable(4) %5) #3
  store i32 %6, ptr %3, align 4
  %7 = load i32, ptr %3, align 4
  %8 = icmp ne i32 %7, 1
  br i1 %8, label %9, label %12

9:                                                ; preds = %1
  %10 = load i32, ptr %3, align 4
  %11 = icmp ne i32 %10, 0
  br label %12

12:                                               ; preds = %9, %1
  %13 = phi i1 [ false, %1 ], [ %11, %9 ]
  ret i1 %13
}

; Function Attrs: mustprogress nounwind uwtable
define linkonce_odr noundef ptr @_ZNK12QWriteLocker13readWriteLockEv(ptr noundef nonnull align 8 dereferenceable(8) %0) #4 comdat align 2 {
  %2 = alloca ptr, align 8
  store ptr %0, ptr %2, align 8
  %3 = load ptr, ptr %2, align 8
  %4 = getelementptr inbounds %class.QWriteLocker, ptr %3, i32 0, i32 0
  %5 = load i64, ptr %4, align 8
  %6 = and i64 %5, -2
  %7 = inttoptr i64 %6 to ptr
  ret ptr %7
}

; Function Attrs: mustprogress uwtable
define linkonce_odr noundef ptr @_ZN8QMapDataIi18MeshModelStateDataE10createNodeERKiRKS0_P8QMapNodeIiS0_Eb(ptr noundef nonnull align 8 dereferenceable(40) %0, ptr noundef nonnull align 4 dereferenceable(4) %1, ptr noundef nonnull align 8 dereferenceable(32) %2, ptr noundef %3, i1 noundef zeroext %4) #5 comdat align 2 {
  %6 = alloca ptr, align 8
  %7 = alloca ptr, align 8
  %8 = alloca ptr, align 8
  %9 = alloca ptr, align 8
  %10 = alloca i8, align 1
  %11 = alloca ptr, align 8
  store ptr %0, ptr %6, align 8
  store ptr %1, ptr %7, align 8
  store ptr %2, ptr %8, align 8
  store ptr %3, ptr %9, align 8
  %12 = zext i1 %4 to i8
  store i8 %12, ptr %10, align 1
  %13 = load ptr, ptr %6, align 8
  %14 = load ptr, ptr %9, align 8
  %15 = load i8, ptr %10, align 1
  %16 = trunc i8 %15 to i1
  %17 = call noundef ptr @_ZN12QMapDataBase10createNodeEiiP12QMapNodeBaseb(ptr noundef nonnull align 8 dereferenceable(40) %13, i32 noundef 64, i32 noundef 8, ptr noundef %14, i1 noundef zeroext %16)
  store ptr %17, ptr %11, align 8
  %18 = load ptr, ptr %11, align 8
  %19 = getelementptr inbounds %struct.QMapNode, ptr %18, i32 0, i32 1
  %20 = load ptr, ptr %7, align 8
  %21 = load i32, ptr %20, align 4
  store i32 %21, ptr %19, align 8
  %22 = load ptr, ptr %11, align 8
  %23 = getelementptr inbounds %struct.QMapNode, ptr %22, i32 0, i32 2
  %24 = load ptr, ptr %8, align 8
  call void @llvm.memcpy.p0.p0.i64(ptr align 8 %23, ptr align 8 %24, i64 32, i1 false)
  %25 = load ptr, ptr %11, align 8
  ret ptr %25
}

; Function Attrs: mustprogress nounwind uwtable
define linkonce_odr void @_ZN4QMapIi18MeshModelStateDataE8iteratorC2EP8QMapNodeIiS0_E(ptr noundef nonnull align 8 dereferenceable(8) %0, ptr noundef %1) unnamed_addr #4 comdat align 2 {
  %3 = alloca ptr, align 8
  %4 = alloca ptr, align 8
  store ptr %0, ptr %3, align 8
  store ptr %1, ptr %4, align 8
  %5 = load ptr, ptr %3, align 8
  %6 = getelementptr inbounds %"class.QMap<int, MeshModelStateData>::iterator", ptr %5, i32 0, i32 0
  %7 = load ptr, ptr %4, align 8
  store ptr %7, ptr %6, align 8
  ret void
}

; Function Attrs: mustprogress nounwind uwtable
define linkonce_odr noundef ptr @_ZNK8QMapNodeIi18MeshModelStateDataE9rightNodeEv(ptr noundef nonnull align 8 dereferenceable(64) %0) #4 comdat align 2 {
  %2 = alloca ptr, align 8
  store ptr %0, ptr %2, align 8
  %3 = load ptr, ptr %2, align 8
  %4 = getelementptr inbounds %struct.QMapNodeBase, ptr %3, i32 0, i32 2
  %5 = load ptr, ptr %4, align 8
  ret ptr %5
}

; Function Attrs: mustprogress nounwind uwtable
define linkonce_odr noundef ptr @_ZNK8QMapNodeIi18MeshModelStateDataE8leftNodeEv(ptr noundef nonnull align 8 dereferenceable(64) %0) #4 comdat align 2 {
  %2 = alloca ptr, align 8
  store ptr %0, ptr %2, align 8
  %3 = load ptr, ptr %2, align 8
  %4 = getelementptr inbounds %struct.QMapNodeBase, ptr %3, i32 0, i32 1
  %5 = load ptr, ptr %4, align 8
  ret ptr %5
}

; Function Attrs: mustprogress nounwind uwtable
define linkonce_odr noundef zeroext i1 @_Z15qMapLessThanKeyIiEbRKT_S2_(ptr noundef nonnull align 4 dereferenceable(4) %0, ptr noundef nonnull align 4 dereferenceable(4) %1) #4 comdat {
  %3 = alloca ptr, align 8
  %4 = alloca ptr, align 8
  store ptr %0, ptr %3, align 8
  store ptr %1, ptr %4, align 8
  %5 = load ptr, ptr %3, align 8
  %6 = load i32, ptr %5, align 4
  %7 = load ptr, ptr %4, align 8
  %8 = load i32, ptr %7, align 4
  %9 = icmp slt i32 %6, %8
  ret i1 %9
}

; Function Attrs: mustprogress nounwind uwtable
define linkonce_odr noundef ptr @_ZN8QMapDataIi18MeshModelStateDataE3endEv(ptr noundef nonnull align 8 dereferenceable(40) %0) #4 comdat align 2 {
  %2 = alloca ptr, align 8
  store ptr %0, ptr %2, align 8
  %3 = load ptr, ptr %2, align 8
  %4 = getelementptr inbounds %struct.QMapDataBase, ptr %3, i32 0, i32 2
  ret ptr %4
}

; Function Attrs: mustprogress nounwind uwtable
define linkonce_odr noundef ptr @_ZNK8QMapDataIi18MeshModelStateDataE4rootEv(ptr noundef nonnull align 8 dereferenceable(40) %0) #4 comdat align 2 {
  %2 = alloca ptr, align 8
  store ptr %0, ptr %2, align 8
  %3 = load ptr, ptr %2, align 8
  %4 = getelementptr inbounds %struct.QMapDataBase, ptr %3, i32 0, i32 2
  %5 = getelementptr inbounds %struct.QMapNodeBase, ptr %4, i32 0, i32 1
  %6 = load ptr, ptr %5, align 8
  ret ptr %6
}

; Function Attrs: mustprogress uwtable
define linkonce_odr void @_ZN4QMapIi18MeshModelStateDataE6detachEv(ptr noundef nonnull align 8 dereferenceable(8) %0) #5 comdat align 2 {
  %2 = alloca ptr, align 8
  store ptr %0, ptr %2, align 8
  %3 = load ptr, ptr %2, align 8
  %4 = getelementptr inbounds %class.QMap, ptr %3, i32 0, i32 0
  %5 = load ptr, ptr %4, align 8
  %6 = getelementptr inbounds %struct.QMapDataBase, ptr %5, i32 0, i32 0
  %7 = call noundef zeroext i1 @_ZNK9QtPrivate8RefCount8isSharedEv(ptr noundef nonnull align 4 dereferenceable(4) %6) #3
  br i1 %7, label %8, label %9

8:                                                ; preds = %1
  call void @_ZN4QMapIi18MeshModelStateDataE13detach_helperEv(ptr noundef nonnull align 8 dereferenceable(8) %3)
  br label %9

9:                                                ; preds = %8, %1
  ret void
}

; Function Attrs: mustprogress uwtable
define linkonce_odr void @_ZN12QWriteLocker6relockEv(ptr noundef nonnull align 8 dereferenceable(8) %0) #5 comdat align 2 {
  %2 = alloca ptr, align 8
  store ptr %0, ptr %2, align 8
  %3 = load ptr, ptr %2, align 8
  %4 = getelementptr inbounds %class.QWriteLocker, ptr %3, i32 0, i32 0
  %5 = load i64, ptr %4, align 8
  %6 = icmp ne i64 %5, 0
  br i1 %6, label %7, label %18

7:                                                ; preds = %1
  %8 = getelementptr inbounds %class.QWriteLocker, ptr %3, i32 0, i32 0
  %9 = load i64, ptr %8, align 8
  %10 = and i64 %9, 1
  %11 = icmp eq i64 %10, 0
  br i1 %11, label %12, label %17

12:                                               ; preds = %7
  %13 = call noundef ptr @_ZNK12QWriteLocker13readWriteLockEv(ptr noundef nonnull align 8 dereferenceable(8) %3)
  call void @_ZN14QReadWriteLock12lockForWriteEv(ptr noundef nonnull align 8 dereferenceable(8) %13)
  %14 = getelementptr inbounds %class.QWriteLocker, ptr %3, i32 0, i32 0
  %15 = load i64, ptr %14, align 8
  %16 = or i64 %15, 1
  store i64 %16, ptr %14, align 8
  br label %17

17:                                               ; preds = %12, %7
  br label %18

18:                                               ; preds = %17, %1
  ret void
}

; Function Attrs: mustprogress uwtable
define linkonce_odr ptr @_ZN4QMapIi18MeshModelStateDataE6insertERKiRKS0_(ptr noundef nonnull align 8 dereferenceable(8) %0, ptr noundef nonnull align 4 dereferenceable(4) %1, ptr noundef nonnull align 8 dereferenceable(32) %2) #5 comdat align 2 {
  %4 = alloca %"class.QMap<int, MeshModelStateData>::iterator", align 8
  %5 = alloca ptr, align 8
  %6 = alloca ptr, align 8
  %7 = alloca ptr, align 8
  %8 = alloca ptr, align 8
  %9 = alloca ptr, align 8
  %10 = alloca ptr, align 8
  %11 = alloca i8, align 1
  %12 = alloca ptr, align 8
  store ptr %0, ptr %5, align 8
  store ptr %1, ptr %6, align 8
  store ptr %2, ptr %7, align 8
  %13 = load ptr, ptr %5, align 8
  call void @_ZN4QMapIi18MeshModelStateDataE6detachEv(ptr noundef nonnull align 8 dereferenceable(8) %13)
  %14 = getelementptr inbounds %class.QMap, ptr %13, i32 0, i32 0
  %15 = load ptr, ptr %14, align 8
  %16 = call noundef ptr @_ZNK8QMapDataIi18MeshModelStateDataE4rootEv(ptr noundef nonnull align 8 dereferenceable(40) %15)
  store ptr %16, ptr %8, align 8
  %17 = getelementptr inbounds %class.QMap, ptr %13, i32 0, i32 0
  %18 = load ptr, ptr %17, align 8
  %19 = call noundef ptr @_ZN8QMapDataIi18MeshModelStateDataE3endEv(ptr noundef nonnull align 8 dereferenceable(40) %18)
  store ptr %19, ptr %9, align 8
  store ptr null, ptr %10, align 8
  store i8 1, ptr %11, align 1
  br label %20

20:                                               ; preds = %36, %3
  %21 = load ptr, ptr %8, align 8
  %22 = icmp ne ptr %21, null
  br i1 %22, label %23, label %37

23:                                               ; preds = %20
  %24 = load ptr, ptr %8, align 8
  store ptr %24, ptr %9, align 8
  %25 = load ptr, ptr %8, align 8
  %26 = getelementptr inbounds %struct.QMapNode, ptr %25, i32 0, i32 1
  %27 = load ptr, ptr %6, align 8
  %28 = call noundef zeroext i1 @_Z15qMapLessThanKeyIiEbRKT_S2_(ptr noundef nonnull align 4 dereferenceable(4) %26, ptr noundef nonnull align 4 dereferenceable(4) %27)
  br i1 %28, label %33, label %29

29:                                               ; preds = %23
  %30 = load ptr, ptr %8, align 8
  store ptr %30, ptr %10, align 8
  store i8 1, ptr %11, align 1
  %31 = load ptr, ptr %8, align 8
  %32 = call noundef ptr @_ZNK8QMapNodeIi18MeshModelStateDataE8leftNodeEv(ptr noundef nonnull align 8 dereferenceable(64) %31)
  store ptr %32, ptr %8, align 8
  br label %36

33:                                               ; preds = %23
  store i8 0, ptr %11, align 1
  %34 = load ptr, ptr %8, align 8
  %35 = call noundef ptr @_ZNK8QMapNodeIi18MeshModelStateDataE9rightNodeEv(ptr noundef nonnull align 8 dereferenceable(64) %34)
  store ptr %35, ptr %8, align 8
  br label %36

36:                                               ; preds = %33, %29
  br label %20, !llvm.loop !11

37:                                               ; preds = %20
  %38 = load ptr, ptr %10, align 8
  %39 = icmp ne ptr %38, null
  br i1 %39, label %40, label %50

40:                                               ; preds = %37
  %41 = load ptr, ptr %6, align 8
  %42 = load ptr, ptr %10, align 8
  %43 = getelementptr inbounds %struct.QMapNode, ptr %42, i32 0, i32 1
  %44 = call noundef zeroext i1 @_Z15qMapLessThanKeyIiEbRKT_S2_(ptr noundef nonnull align 4 dereferenceable(4) %41, ptr noundef nonnull align 4 dereferenceable(4) %43)
  br i1 %44, label %50, label %45

45:                                               ; preds = %40
  %46 = load ptr, ptr %7, align 8
  %47 = load ptr, ptr %10, align 8
  %48 = getelementptr inbounds %struct.QMapNode, ptr %47, i32 0, i32 2
  call void @llvm.memcpy.p0.p0.i64(ptr align 8 %48, ptr align 8 %46, i64 32, i1 false)
  %49 = load ptr, ptr %10, align 8
  call void @_ZN4QMapIi18MeshModelStateDataE8iteratorC2EP8QMapNodeIiS0_E(ptr noundef nonnull align 8 dereferenceable(8) %4, ptr noundef %49)
  br label %60

50:                                               ; preds = %40, %37
  %51 = getelementptr inbounds %class.QMap, ptr %13, i32 0, i32 0
  %52 = load ptr, ptr %51, align 8
  %53 = load ptr, ptr %6, align 8
  %54 = load ptr, ptr %7, align 8
  %55 = load ptr, ptr %9, align 8
  %56 = load i8, ptr %11, align 1
  %57 = trunc i8 %56 to i1
  %58 = call noundef ptr @_ZN8QMapDataIi18MeshModelStateDataE10createNodeERKiRKS0_P8QMapNodeIiS0_Eb(ptr noundef nonnull align 8 dereferenceable(40) %52, ptr noundef nonnull align 4 dereferenceable(4) %53, ptr noundef nonnull align 8 dereferenceable(32) %54, ptr noundef %55, i1 noundef zeroext %57)
  store ptr %58, ptr %12, align 8
  %59 = load ptr, ptr %12, align 8
  call void @_ZN4QMapIi18MeshModelStateDataE8iteratorC2EP8QMapNodeIiS0_E(ptr noundef nonnull align 8 dereferenceable(8) %4, ptr noundef %59)
  br label %60

60:                                               ; preds = %50, %45
  %61 = getelementptr inbounds %"class.QMap<int, MeshModelStateData>::iterator", ptr %4, i32 0, i32 0
  %62 = load ptr, ptr %61, align 8
  ret ptr %62
}

; Function Attrs: mustprogress uwtable
define linkonce_odr void @_ZN12QWriteLockerC2EP14QReadWriteLock(ptr noundef nonnull align 8 dereferenceable(8) %0, ptr noundef %1) unnamed_addr #5 comdat align 2 {
  %3 = alloca ptr, align 8
  %4 = alloca ptr, align 8
  store ptr %0, ptr %3, align 8
  store ptr %1, ptr %4, align 8
  %5 = load ptr, ptr %3, align 8
  %6 = getelementptr inbounds %class.QWriteLocker, ptr %5, i32 0, i32 0
  %7 = load ptr, ptr %4, align 8
  %8 = ptrtoint ptr %7 to i64
  store i64 %8, ptr %6, align 8
  call void @_ZN12QWriteLocker6relockEv(ptr noundef nonnull align 8 dereferenceable(8) %5)
  ret void
}

; Function Attrs: mustprogress uwtable
define ptr @_ZN21MeshDocumentStateData6insertEiRK18MeshModelStateData(ptr noundef nonnull align 8 dereferenceable(16) %0, i32 noundef %1, ptr noundef nonnull align 8 dereferenceable(32) %2) #5 align 2 personality ptr @__gxx_personality_v0 {
  %4 = alloca %"class.QMap<int, MeshModelStateData>::iterator", align 8
  %5 = alloca ptr, align 8
  %6 = alloca i32, align 4
  %7 = alloca ptr, align 8
  %8 = alloca %class.QWriteLocker, align 8
  %9 = alloca ptr, align 8
  %10 = alloca i32, align 4
  store ptr %0, ptr %5, align 8
  store i32 %1, ptr %6, align 4
  store ptr %2, ptr %7, align 8
  %11 = load ptr, ptr %5, align 8
  %12 = getelementptr inbounds %class.MeshDocumentStateData, ptr %11, i32 0, i32 0
  call void @_ZN12QWriteLockerC2EP14QReadWriteLock(ptr noundef nonnull align 8 dereferenceable(8) %8, ptr noundef %12)
  %13 = getelementptr inbounds %class.MeshDocumentStateData, ptr %11, i32 0, i32 1
  %14 = load ptr, ptr %7, align 8
  %15 = invoke ptr @_ZN4QMapIi18MeshModelStateDataE6insertERKiRKS0_(ptr noundef nonnull align 8 dereferenceable(8) %13, ptr noundef nonnull align 4 dereferenceable(4) %6, ptr noundef nonnull align 8 dereferenceable(32) %14)
          to label %16 unwind label %20

16:                                               ; preds = %3
  %17 = getelementptr inbounds %"class.QMap<int, MeshModelStateData>::iterator", ptr %4, i32 0, i32 0
  store ptr %15, ptr %17, align 8
  call void @_ZN12QWriteLockerD2Ev(ptr noundef nonnull align 8 dereferenceable(8) %8) #3
  %18 = getelementptr inbounds %"class.QMap<int, MeshModelStateData>::iterator", ptr %4, i32 0, i32 0
  %19 = load ptr, ptr %18, align 8
  ret ptr %19

20:                                               ; preds = %3
  %21 = landingpad { ptr, i32 }
          cleanup
  %22 = extractvalue { ptr, i32 } %21, 0
  store ptr %22, ptr %9, align 8
  %23 = extractvalue { ptr, i32 } %21, 1
  store i32 %23, ptr %10, align 4
  call void @_ZN12QWriteLockerD2Ev(ptr noundef nonnull align 8 dereferenceable(8) %8) #3
  br label %24

24:                                               ; preds = %20
  %25 = load ptr, ptr %9, align 8
  %26 = load i32, ptr %10, align 4
  %27 = insertvalue { ptr, i32 } poison, ptr %25, 0
  %28 = insertvalue { ptr, i32 } %27, i32 %26, 1
  resume { ptr, i32 } %28
}