; Function Attrs: mustprogress uwtable
define ptr @_ZN21MeshDocumentStateData6insertEiRK18MeshModelStateData(ptr noundef nonnull align 8 dereferenceable(16) %0, i32 noundef %1, ptr noundef nonnull readonly align 8 captures(none) dereferenceable(32) %2) local_unnamed_addr #10 align 2 personality ptr @__gxx_personality_v0 {
_ZN12QWriteLockerC2EP14QReadWriteLock.exit:
  %3 = alloca %class.QWriteLocker, align 8
  %4 = ptrtoint ptr %0 to i64
  tail call void @_ZN14QReadWriteLock12lockForWriteEv(ptr noundef nonnull align 8 dereferenceable(8) %0)
  %5 = or disjoint i64 %4, 1
  store i64 %5, ptr %3, align 8
  %6 = getelementptr inbounds nuw i8, ptr %0, i64 8
  %7 = load ptr, ptr %6, align 8
  %8 = load atomic i32, ptr %7 monotonic, align 4
  %9 = icmp ugt i32 %8, 1
  br i1 %9, label %10, label %_ZN4QMapIi18MeshModelStateDataE6detachEv.exit.i

10:                                               ; preds = %_ZN12QWriteLockerC2EP14QReadWriteLock.exit
  invoke void @_ZN4QMapIi18MeshModelStateDataE13detach_helperEv(ptr noundef nonnull align 8 dereferenceable(8) %6)
          to label %.noexc unwind label %33

.noexc:                                           ; preds = %10
  %.pre.i = load ptr, ptr %6, align 8
  br label %_ZN4QMapIi18MeshModelStateDataE6detachEv.exit.i

_ZN4QMapIi18MeshModelStateDataE6detachEv.exit.i:  ; preds = %.noexc, %_ZN12QWriteLockerC2EP14QReadWriteLock.exit
  %11 = phi ptr [ %7, %_ZN12QWriteLockerC2EP14QReadWriteLock.exit ], [ %.pre.i, %.noexc ]
  %12 = getelementptr inbounds nuw i8, ptr %11, i64 16
  %13 = getelementptr inbounds nuw i8, ptr %11, i64 8
  %.024.i = load ptr, ptr %12, align 8
  %.not25.i = icmp eq ptr %.024.i, null
  br i1 %.not25.i, label %._crit_edge.thread.i, label %.lr.ph.i

.lr.ph.i:                                         ; preds = %_ZN4QMapIi18MeshModelStateDataE6detachEv.exit.i, %.lr.ph.i
  %.027.i = phi ptr [ %.0.i, %.lr.ph.i ], [ %.024.i, %_ZN4QMapIi18MeshModelStateDataE6detachEv.exit.i ]
  %.02026.i = phi ptr [ %.121.i, %.lr.ph.i ], [ null, %_ZN4QMapIi18MeshModelStateDataE6detachEv.exit.i ]
  %14 = getelementptr inbounds nuw i8, ptr %.027.i, i64 24
  %15 = load i32, ptr %14, align 4
  %16 = icmp sge i32 %15, %1
  %.121.i = select i1 %16, ptr %.027.i, ptr %.02026.i
  %.1.in.v.i = select i1 %16, i64 8, i64 16
  %.1.in.i = getelementptr inbounds nuw i8, ptr %.027.i, i64 %.1.in.v.i
  %.0.i = load ptr, ptr %.1.in.i, align 8
  %.not.i = icmp eq ptr %.0.i, null
  br i1 %.not.i, label %._crit_edge.i, label %.lr.ph.i, !llvm.loop !10

._crit_edge.i:                                    ; preds = %.lr.ph.i
  %.not23.i = icmp eq ptr %.121.i, null
  br i1 %.not23.i, label %._crit_edge.thread.i, label %17

17:                                               ; preds = %._crit_edge.i
  %18 = getelementptr inbounds nuw i8, ptr %.121.i, i64 24
  %19 = load i32, ptr %18, align 4
  %20 = icmp slt i32 %1, %19
  br i1 %20, label %._crit_edge.thread.i, label %23

._crit_edge.thread.i:                             ; preds = %17, %._crit_edge.i, %_ZN4QMapIi18MeshModelStateDataE6detachEv.exit.i
  %.018.lcssa35.i = phi i1 [ %16, %17 ], [ %16, %._crit_edge.i ], [ true, %_ZN4QMapIi18MeshModelStateDataE6detachEv.exit.i ]
  %.022.lcssa34.i = phi ptr [ %.027.i, %17 ], [ %.027.i, %._crit_edge.i ], [ %13, %_ZN4QMapIi18MeshModelStateDataE6detachEv.exit.i ]
  %21 = invoke noundef ptr @_ZN12QMapDataBase10createNodeEiiP12QMapNodeBaseb(ptr noundef nonnull align 8 dereferenceable(40) %11, i32 noundef 64, i32 noundef 8, ptr noundef nonnull %.022.lcssa34.i, i1 noundef zeroext %.018.lcssa35.i)
          to label %.noexc3 unwind label %33

.noexc3:                                          ; preds = %._crit_edge.thread.i
  %22 = getelementptr inbounds nuw i8, ptr %21, i64 24
  store i32 %1, ptr %22, align 8
  %.pre = load i64, ptr %3, align 8
  br label %23

23:                                               ; preds = %.noexc3, %17
  %24 = phi i64 [ %.pre, %.noexc3 ], [ %5, %17 ]
  %.sink36.i = phi ptr [ %21, %.noexc3 ], [ %.121.i, %17 ]
  %25 = getelementptr inbounds nuw i8, ptr %.sink36.i, i64 32
  tail call void @llvm.memcpy.p0.p0.i64(ptr noundef nonnull align 8 dereferenceable(32) %25, ptr noundef nonnull align 8 dereferenceable(32) %2, i64 32, i1 false)
  %26 = and i64 %24, 1
  %.not1.i.i = icmp eq i64 %26, 0
  br i1 %.not1.i.i, label %_ZN12QWriteLockerD2Ev.exit, label %27

27:                                               ; preds = %23
  %28 = and i64 %24, -2
  %29 = inttoptr i64 %28 to ptr
  invoke void @_ZN14QReadWriteLock6unlockEv(ptr noundef nonnull align 8 dereferenceable(8) %29)
          to label %_ZN12QWriteLockerD2Ev.exit unwind label %30

30:                                               ; preds = %27
  %31 = landingpad { ptr, i32 }
          catch ptr null
  %32 = extractvalue { ptr, i32 } %31, 0
  tail call void @__clang_call_terminate(ptr %32) #17
  unreachable

_ZN12QWriteLockerD2Ev.exit:                       ; preds = %23, %27
  ret ptr %.sink36.i

33:                                               ; preds = %._crit_edge.thread.i, %10
  %34 = landingpad { ptr, i32 }
          cleanup
  call void @_ZN12QWriteLockerD2Ev(ptr noundef nonnull align 8 dereferenceable(8) %3) #16
  resume { ptr, i32 } %34
}